target datalayout = "e-m:e-p270:32:32-p271:32:32-p272:64:64-i64:64-i128:128-f80:128-n8:16:32:64-S128"
target triple = "x86_64-pc-linux-gnu"

%struct.ui_st = type { ptr, ptr, ptr, %struct.crypto_ex_data_st, i32, ptr }
%struct.crypto_ex_data_st = type { ptr, ptr }
%struct.ui_string_st = type { i32, ptr, i32, ptr, i64, %union.anon, i32 }
%union.anon = type { %struct.anon.0 }
%struct.anon.0 = type { ptr, ptr, ptr }

@.str = private unnamed_addr constant [30 x i8] c"../openssl/crypto/ui/ui_lib.c\00", align 1
@__func__.general_allocate_boolean = private unnamed_addr constant [25 x i8] c"general_allocate_boolean\00", align 1

; Function Attrs: nounwind uwtable
define internal void @free_string(ptr noundef %0) #0 {
  %2 = alloca ptr, align 8
  store ptr %0, ptr %2, align 8, !tbaa !26
  %3 = load ptr, ptr %2, align 8, !tbaa !26
  %4 = getelementptr inbounds nuw %struct.ui_string_st, ptr %3, i32 0, i32 6
  %5 = load i32, ptr %4, align 8, !tbaa !28
  %6 = and i32 %5, 1
  %7 = icmp ne i32 %6, 0
  br i1 %7, label %8, label %30

8:                                                ; preds = %1
  %9 = load ptr, ptr %2, align 8, !tbaa !26
  %10 = getelementptr inbounds nuw %struct.ui_string_st, ptr %9, i32 0, i32 1
  %11 = load ptr, ptr %10, align 8, !tbaa !31
  call void @CRYPTO_free(ptr noundef %11, ptr noundef @.str, i32 noundef 53)
  %12 = load ptr, ptr %2, align 8, !tbaa !26
  %13 = getelementptr inbounds nuw %struct.ui_string_st, ptr %12, i32 0, i32 0
  %14 = load i32, ptr %13, align 8, !tbaa !32
  switch i32 %14, label %29 [
    i32 3, label %15
    i32 0, label %28
    i32 1, label %28
    i32 2, label %28
    i32 5, label %28
    i32 4, label %28
  ]

15:                                               ; preds = %8
  %16 = load ptr, ptr %2, align 8, !tbaa !26
  %17 = getelementptr inbounds nuw %struct.ui_string_st, ptr %16, i32 0, i32 5
  %18 = getelementptr inbounds nuw %struct.anon.0, ptr %17, i32 0, i32 0
  %19 = load ptr, ptr %18, align 8, !tbaa !33
  call void @CRYPTO_free(ptr noundef %19, ptr noundef @.str, i32 noundef 56)
  %20 = load ptr, ptr %2, align 8, !tbaa !26
  %21 = getelementptr inbounds nuw %struct.ui_string_st, ptr %20, i32 0, i32 5
  %22 = getelementptr inbounds nuw %struct.anon.0, ptr %21, i32 0, i32 1
  %23 = load ptr, ptr %22, align 8, !tbaa !33
  call void @CRYPTO_free(ptr noundef %23, ptr noundef @.str, i32 noundef 57)
  %24 = load ptr, ptr %2, align 8, !tbaa !26
  %25 = getelementptr inbounds nuw %struct.ui_string_st, ptr %24, i32 0, i32 5
  %26 = getelementptr inbounds nuw %struct.anon.0, ptr %25, i32 0, i32 2
  %27 = load ptr, ptr %26, align 8, !tbaa !33
  call void @CRYPTO_free(ptr noundef %27, ptr noundef @.str, i32 noundef 58)
  br label %29

28:                                               ; preds = %8, %8, %8, %8, %8
  br label %29

29:                                               ; preds = %8, %28, %15
  br label %30

30:                                               ; preds = %29, %1
  %31 = load ptr, ptr %2, align 8, !tbaa !26
  call void @CRYPTO_free(ptr noundef %31, ptr noundef @.str, i32 noundef 68)
  ret void
}

; Function Attrs: inlinehint nounwind uwtable
define internal ptr @ossl_check_UI_STRING_type(ptr noundef %0) #3 {
  %2 = alloca ptr, align 8
  store ptr %0, ptr %2, align 8, !tbaa !26
  %3 = load ptr, ptr %2, align 8, !tbaa !26
  ret ptr %3
}

; Function Attrs: inlinehint nounwind uwtable
define internal ptr @ossl_check_UI_STRING_sk_type(ptr noundef %0) #3 {
  %2 = alloca ptr, align 8
  store ptr %0, ptr %2, align 8, !tbaa !24
  %3 = load ptr, ptr %2, align 8, !tbaa !24
  ret ptr %3
}

; Function Attrs: nounwind uwtable
define internal i32 @allocate_string_stack(ptr noundef %0) #0 {
  %2 = alloca i32, align 4
  %3 = alloca ptr, align 8
  store ptr %0, ptr %3, align 8, !tbaa !8
  %4 = load ptr, ptr %3, align 8, !tbaa !8
  %5 = getelementptr inbounds nuw %struct.ui_st, ptr %4, i32 0, i32 1
  %6 = load ptr, ptr %5, align 8, !tbaa !23
  %7 = icmp eq ptr %6, null
  br i1 %7, label %8, label %18

8:                                                ; preds = %1
  %9 = call ptr @OPENSSL_sk_new_null()
  %10 = load ptr, ptr %3, align 8, !tbaa !8
  %11 = getelementptr inbounds nuw %struct.ui_st, ptr %10, i32 0, i32 1
  store ptr %9, ptr %11, align 8, !tbaa !23
  %12 = load ptr, ptr %3, align 8, !tbaa !8
  %13 = getelementptr inbounds nuw %struct.ui_st, ptr %12, i32 0, i32 1
  %14 = load ptr, ptr %13, align 8, !tbaa !23
  %15 = icmp eq ptr %14, null
  br i1 %15, label %16, label %17

16:                                               ; preds = %8
  store i32 -1, ptr %2, align 4
  br label %19

17:                                               ; preds = %8
  br label %18

18:                                               ; preds = %17, %1
  store i32 0, ptr %2, align 4
  br label %19

19:                                               ; preds = %18, %16
  %20 = load i32, ptr %2, align 4
  ret i32 %20
}

; Function Attrs: nounwind uwtable
define internal i32 @general_allocate_boolean(ptr noundef %0, ptr noundef %1, ptr noundef %2, ptr noundef %3, ptr noundef %4, i32 noundef %5, i32 noundef %6, i32 noundef %7, ptr noundef %8) #0 {
  %10 = alloca ptr, align 8
  %11 = alloca ptr, align 8
  %12 = alloca ptr, align 8
  %13 = alloca ptr, align 8
  %14 = alloca ptr, align 8
  %15 = alloca i32, align 4
  %16 = alloca i32, align 4
  %17 = alloca i32, align 4
  %18 = alloca ptr, align 8
  %19 = alloca i32, align 4
  %20 = alloca ptr, align 8
  %21 = alloca ptr, align 8
  store ptr %0, ptr %10, align 8, !tbaa !8
  store ptr %1, ptr %11, align 8, !tbaa !34
  store ptr %2, ptr %12, align 8, !tbaa !34
  store ptr %3, ptr %13, align 8, !tbaa !34
  store ptr %4, ptr %14, align 8, !tbaa !34
  store i32 %5, ptr %15, align 4, !tbaa !35
  store i32 %6, ptr %16, align 4, !tbaa !35
  store i32 %7, ptr %17, align 4, !tbaa !35
  store ptr %8, ptr %18, align 8, !tbaa !34
  call void @llvm.lifetime.start.p0(i64 4, ptr %19) #7
  store i32 -1, ptr %19, align 4, !tbaa !35
  call void @llvm.lifetime.start.p0(i64 8, ptr %20) #7
  call void @llvm.lifetime.start.p0(i64 8, ptr %21) #7
  %22 = load ptr, ptr %13, align 8, !tbaa !34
  %23 = icmp eq ptr %22, null
  br i1 %23, label %24, label %25

24:                                               ; preds = %9
  call void @ERR_new()
  call void @ERR_set_debug(ptr noundef @.str, i32 noundef 158, ptr noundef @__func__.general_allocate_boolean)
  call void (i32, i32, ptr, ...) @ERR_set_error(i32 noundef 40, i32 noundef 786690, ptr noundef null)
  br label %94

25:                                               ; preds = %9
  %26 = load ptr, ptr %14, align 8, !tbaa !34
  %27 = icmp eq ptr %26, null
  br i1 %27, label %28, label %29

28:                                               ; preds = %25
  call void @ERR_new()
  call void @ERR_set_debug(ptr noundef @.str, i32 noundef 160, ptr noundef @__func__.general_allocate_boolean)
  call void (i32, i32, ptr, ...) @ERR_set_error(i32 noundef 40, i32 noundef 786690, ptr noundef null)
  br label %93

29:                                               ; preds = %25
  %30 = load ptr, ptr %13, align 8, !tbaa !34
  store ptr %30, ptr %21, align 8, !tbaa !34
  br label %31

31:                                               ; preds = %45, %29
  %32 = load ptr, ptr %21, align 8, !tbaa !34
  %33 = load i8, ptr %32, align 1, !tbaa !33
  %34 = sext i8 %33 to i32
  %35 = icmp ne i32 %34, 0
  br i1 %35, label %36, label %48

36:                                               ; preds = %31
  %37 = load ptr, ptr %14, align 8, !tbaa !34
  %38 = load ptr, ptr %21, align 8, !tbaa !34
  %39 = load i8, ptr %38, align 1, !tbaa !33
  %40 = sext i8 %39 to i32
  %41 = call ptr @strchr(ptr noundef %37, i32 noundef %40) #8
  %42 = icmp ne ptr %41, null
  br i1 %42, label %43, label %44

43:                                               ; preds = %36
  call void @ERR_new()
  call void @ERR_set_debug(ptr noundef @.str, i32 noundef 164, ptr noundef @__func__.general_allocate_boolean)
  call void (i32, i32, ptr, ...) @ERR_set_error(i32 noundef 40, i32 noundef 104, ptr noundef null)
  br label %44

44:                                               ; preds = %43, %36
  br label %45

45:                                               ; preds = %44
  %46 = load ptr, ptr %21, align 8, !tbaa !34
  %47 = getelementptr inbounds nuw i8, ptr %46, i32 1
  store ptr %47, ptr %21, align 8, !tbaa !34
  br label %31, !llvm.loop !36

48:                                               ; preds = %31
  %49 = load ptr, ptr %10, align 8, !tbaa !8
  %50 = load ptr, ptr %11, align 8, !tbaa !34
  %51 = load i32, ptr %15, align 4, !tbaa !35
  %52 = load i32, ptr %16, align 4, !tbaa !35
  %53 = load i32, ptr %17, align 4, !tbaa !35
  %54 = load ptr, ptr %18, align 8, !tbaa !34
  %55 = call ptr @general_allocate_prompt(ptr noundef %49, ptr noundef %50, i32 noundef %51, i32 noundef %52, i32 noundef %53, ptr noundef %54)
  store ptr %55, ptr %20, align 8, !tbaa !26
  %56 = load ptr, ptr %20, align 8, !tbaa !26
  %57 = icmp ne ptr %56, null
  br i1 %57, label %58, label %92

58:                                               ; preds = %48
  %59 = load ptr, ptr %10, align 8, !tbaa !8
  %60 = call i32 @allocate_string_stack(ptr noundef %59)
  %61 = icmp sge i32 %60, 0
  br i1 %61, label %62, label %89

62:                                               ; preds = %58
  %63 = load ptr, ptr %12, align 8, !tbaa !34
  %64 = load ptr, ptr %20, align 8, !tbaa !26
  %65 = getelementptr inbounds nuw %struct.ui_string_st, ptr %64, i32 0, i32 5
  %66 = getelementptr inbounds nuw %struct.anon.0, ptr %65, i32 0, i32 0
  store ptr %63, ptr %66, align 8, !tbaa !33
  %67 = load ptr, ptr %13, align 8, !tbaa !34
  %68 = load ptr, ptr %20, align 8, !tbaa !26
  %69 = getelementptr inbounds nuw %struct.ui_string_st, ptr %68, i32 0, i32 5
  %70 = getelementptr inbounds nuw %struct.anon.0, ptr %69, i32 0, i32 1
  store ptr %67, ptr %70, align 8, !tbaa !33
  %71 = load ptr, ptr %14, align 8, !tbaa !34
  %72 = load ptr, ptr %20, align 8, !tbaa !26
  %73 = getelementptr inbounds nuw %struct.ui_string_st, ptr %72, i32 0, i32 5
  %74 = getelementptr inbounds nuw %struct.anon.0, ptr %73, i32 0, i32 2
  store ptr %71, ptr %74, align 8, !tbaa !33
  %75 = load ptr, ptr %10, align 8, !tbaa !8
  %76 = getelementptr inbounds nuw %struct.ui_st, ptr %75, i32 0, i32 1
  %77 = load ptr, ptr %76, align 8, !tbaa !23
  %78 = call ptr @ossl_check_UI_STRING_sk_type(ptr noundef %77)
  %79 = load ptr, ptr %20, align 8, !tbaa !26
  %80 = call ptr @ossl_check_UI_STRING_type(ptr noundef %79)
  %81 = call i32 @OPENSSL_sk_push(ptr noundef %78, ptr noundef %80)
  store i32 %81, ptr %19, align 4, !tbaa !35
  %82 = load i32, ptr %19, align 4, !tbaa !35
  %83 = icmp sle i32 %82, 0
  br i1 %83, label %84, label %88

84:                                               ; preds = %62
  %85 = load i32, ptr %19, align 4, !tbaa !35
  %86 = add nsw i32 %85, -1
  store i32 %86, ptr %19, align 4, !tbaa !35
  %87 = load ptr, ptr %20, align 8, !tbaa !26
  call void @free_string(ptr noundef %87)
  br label %88

88:                                               ; preds = %84, %62
  br label %91

89:                                               ; preds = %58
  %90 = load ptr, ptr %20, align 8, !tbaa !26
  call void @free_string(ptr noundef %90)
  br label %91

91:                                               ; preds = %89, %88
  br label %92

92:                                               ; preds = %91, %48
  br label %93

93:                                               ; preds = %92, %28
  br label %94

94:                                               ; preds = %93, %24
  %95 = load i32, ptr %19, align 4, !tbaa !35
  call void @llvm.lifetime.end.p0(i64 8, ptr %21) #7
  call void @llvm.lifetime.end.p0(i64 8, ptr %20) #7
  call void @llvm.lifetime.end.p0(i64 4, ptr %19) #7
  ret i32 %95
}