; Function Attrs: nounwind uwtable
define internal fastcc range(i32 1, 0) i32 @general_allocate_boolean(ptr noundef captures(none) %0, ptr noundef %1, ptr noundef %2, ptr noundef %3, ptr noundef %4, i32 noundef range(i32 0, 2) %5, i32 noundef %6, ptr noundef %7) unnamed_addr #0 {
  %9 = icmp eq ptr %3, null
  br i1 %9, label %10, label %11

10:                                               ; preds = %8
  tail call void @ERR_new() #8
  tail call void @ERR_set_debug(ptr noundef nonnull @.str, i32 noundef 158, ptr noundef nonnull @__func__.general_allocate_boolean) #8
  tail call void (i32, i32, ptr, ...) @ERR_set_error(i32 noundef 40, i32 noundef 786690, ptr noundef null) #8
  br label %64

11:                                               ; preds = %8
  %12 = icmp eq ptr %4, null
  br i1 %12, label %14, label %.preheader

.preheader:                                       ; preds = %11
  %13 = load i8, ptr %3, align 1, !tbaa !26
  %.not39 = icmp eq i8 %13, 0
  br i1 %.not39, label %._crit_edge, label %.lr.ph

14:                                               ; preds = %11
  tail call void @ERR_new() #8
  tail call void @ERR_set_debug(ptr noundef nonnull @.str, i32 noundef 160, ptr noundef nonnull @__func__.general_allocate_boolean) #8
  tail call void (i32, i32, ptr, ...) @ERR_set_error(i32 noundef 40, i32 noundef 786690, ptr noundef null) #8
  br label %64

.lr.ph:                                           ; preds = %.preheader, %19
  %15 = phi i8 [ %21, %19 ], [ %13, %.preheader ]
  %.040 = phi ptr [ %20, %19 ], [ %3, %.preheader ]
  %16 = sext i8 %15 to i32
  %17 = tail call ptr @strchr(ptr noundef nonnull dereferenceable(1) %4, i32 noundef %16) #9
  %.not34 = icmp eq ptr %17, null
  br i1 %.not34, label %19, label %18

18:                                               ; preds = %.lr.ph
  tail call void @ERR_new() #8
  tail call void @ERR_set_debug(ptr noundef nonnull @.str, i32 noundef 164, ptr noundef nonnull @__func__.general_allocate_boolean) #8
  tail call void (i32, i32, ptr, ...) @ERR_set_error(i32 noundef 40, i32 noundef 104, ptr noundef null) #8
  br label %19

19:                                               ; preds = %.lr.ph, %18
  %20 = getelementptr inbounds nuw i8, ptr %.040, i64 1
  %21 = load i8, ptr %20, align 1, !tbaa !26
  %.not = icmp eq i8 %21, 0
  br i1 %.not, label %._crit_edge, label %.lr.ph, !llvm.loop !27

._crit_edge:                                      ; preds = %19, %.preheader
  %22 = tail call fastcc ptr @general_allocate_prompt(ptr noundef %1, i32 noundef %5, i32 noundef 3, i32 noundef %6, ptr noundef %7)
  %.not33 = icmp eq ptr %22, null
  br i1 %.not33, label %64, label %23

23:                                               ; preds = %._crit_edge
  %24 = getelementptr inbounds nuw i8, ptr %0, i64 8
  %25 = load ptr, ptr %24, align 8, !tbaa !20
  %26 = icmp eq ptr %25, null
  br i1 %26, label %27, label %30

27:                                               ; preds = %23
  %28 = tail call ptr @OPENSSL_sk_new_null() #8
  store ptr %28, ptr %24, align 8, !tbaa !20
  %29 = icmp eq ptr %28, null
  br i1 %29, label %allocate_string_stack.exit, label %30

30:                                               ; preds = %23, %27
  %31 = phi ptr [ %25, %23 ], [ %28, %27 ]
  %32 = getelementptr inbounds nuw i8, ptr %22, i64 40
  store ptr %2, ptr %32, align 8, !tbaa !26
  %33 = getelementptr inbounds nuw i8, ptr %22, i64 48
  store ptr %3, ptr %33, align 8, !tbaa !26
  %34 = getelementptr inbounds nuw i8, ptr %22, i64 56
  store ptr %4, ptr %34, align 8, !tbaa !26
  %35 = tail call i32 @OPENSSL_sk_push(ptr noundef nonnull %31, ptr noundef nonnull %22) #8
  %36 = icmp slt i32 %35, 1
  br i1 %36, label %37, label %64

37:                                               ; preds = %30
  %38 = add nsw i32 %35, -1
  %39 = getelementptr inbounds nuw i8, ptr %22, i64 64
  %40 = load i32, ptr %39, align 8, !tbaa !21
  %41 = and i32 %40, 1
  %.not.i = icmp eq i32 %41, 0
  br i1 %.not.i, label %free_string.exit, label %42

42:                                               ; preds = %37
  %43 = getelementptr inbounds nuw i8, ptr %22, i64 8
  %44 = load ptr, ptr %43, align 8, !tbaa !24
  tail call void @CRYPTO_free(ptr noundef %44, ptr noundef nonnull @.str, i32 noundef 53) #8
  %45 = load i32, ptr %22, align 8, !tbaa !25
  %cond.i = icmp eq i32 %45, 3
  br i1 %cond.i, label %46, label %free_string.exit

46:                                               ; preds = %42
  %47 = load ptr, ptr %32, align 8, !tbaa !26
  tail call void @CRYPTO_free(ptr noundef %47, ptr noundef nonnull @.str, i32 noundef 56) #8
  %48 = load ptr, ptr %33, align 8, !tbaa !26
  tail call void @CRYPTO_free(ptr noundef %48, ptr noundef nonnull @.str, i32 noundef 57) #8
  %49 = load ptr, ptr %34, align 8, !tbaa !26
  tail call void @CRYPTO_free(ptr noundef %49, ptr noundef nonnull @.str, i32 noundef 58) #8
  br label %free_string.exit

free_string.exit:                                 ; preds = %37, %42, %46
  tail call void @CRYPTO_free(ptr noundef nonnull %22, ptr noundef nonnull @.str, i32 noundef 68) #8
  br label %64

allocate_string_stack.exit:                       ; preds = %27
  %50 = getelementptr inbounds nuw i8, ptr %22, i64 64
  %51 = load i32, ptr %50, align 8, !tbaa !21
  %52 = and i32 %51, 1
  %.not.i35 = icmp eq i32 %52, 0
  br i1 %.not.i35, label %free_string.exit37, label %53

53:                                               ; preds = %allocate_string_stack.exit
  %54 = getelementptr inbounds nuw i8, ptr %22, i64 8
  %55 = load ptr, ptr %54, align 8, !tbaa !24
  tail call void @CRYPTO_free(ptr noundef %55, ptr noundef nonnull @.str, i32 noundef 53) #8
  %56 = load i32, ptr %22, align 8, !tbaa !25
  %cond.i36 = icmp eq i32 %56, 3
  br i1 %cond.i36, label %57, label %free_string.exit37

57:                                               ; preds = %53
  %58 = getelementptr inbounds nuw i8, ptr %22, i64 40
  %59 = load ptr, ptr %58, align 8, !tbaa !26
  tail call void @CRYPTO_free(ptr noundef %59, ptr noundef nonnull @.str, i32 noundef 56) #8
  %60 = getelementptr inbounds nuw i8, ptr %22, i64 48
  %61 = load ptr, ptr %60, align 8, !tbaa !26
  tail call void @CRYPTO_free(ptr noundef %61, ptr noundef nonnull @.str, i32 noundef 57) #8
  %62 = getelementptr inbounds nuw i8, ptr %22, i64 56
  %63 = load ptr, ptr %62, align 8, !tbaa !26
  tail call void @CRYPTO_free(ptr noundef %63, ptr noundef nonnull @.str, i32 noundef 58) #8
  br label %free_string.exit37

free_string.exit37:                               ; preds = %allocate_string_stack.exit, %53, %57
  tail call void @CRYPTO_free(ptr noundef nonnull %22, ptr noundef nonnull @.str, i32 noundef 68) #8
  br label %64

64:                                               ; preds = %14, %free_string.exit37, %free_string.exit, %30, %._crit_edge, %10
  %.027 = phi i32 [ -1, %10 ], [ -1, %14 ], [ %38, %free_string.exit ], [ %35, %30 ], [ -1, %free_string.exit37 ], [ -1, %._crit_edge ]
  ret i32 %.027
}